; Function Attrs: mustprogress uwtable
define noundef nonnull align 8 dereferenceable(64) ptr @_ZN6icu_7714Transliterator18getAvailableSourceEiRNS_13UnicodeStringE(i32 noundef %0, ptr noundef nonnull returned align 8 dereferenceable(64) %1) local_unnamed_addr #1 align 2 personality ptr @__gxx_personality_v0 {
  %3 = alloca i32, align 4
  tail call void @umtx_lock_77(ptr noundef nonnull @_ZL13registryMutex)
  call void @llvm.lifetime.start.p0(i64 4, ptr nonnull %3) #21
  store i32 0, ptr %3, align 4, !tbaa !13
  %4 = load ptr, ptr @_ZL8registry, align 8, !tbaa !49
  %.not = icmp eq ptr %4, null
  br i1 %.not, label %5, label %8

5:                                                ; preds = %2
  %6 = invoke noundef signext i8 @_ZN6icu_7714Transliterator18initializeRegistryER10UErrorCode(ptr noundef nonnull align 4 dereferenceable(4) %3)
          to label %7 unwind label %11

7:                                                ; preds = %5
  %.not4 = icmp eq i8 %6, 0
  br i1 %.not4, label %_ZN6icu_7714Transliterator19_getAvailableSourceEiRNS_13UnicodeStringE.exit, label %._crit_edge

._crit_edge:                                      ; preds = %7
  %.pre = load ptr, ptr @_ZL8registry, align 8, !tbaa !49
  br label %8

8:                                                ; preds = %._crit_edge, %2
  %9 = phi ptr [ %.pre, %._crit_edge ], [ %4, %2 ]
  %10 = invoke noundef nonnull align 8 dereferenceable(64) ptr @_ZNK6icu_7722TransliteratorRegistry18getAvailableSourceEiRNS_13UnicodeStringE(ptr noundef nonnull align 8 dereferenceable(312) %9, i32 noundef %0, ptr noundef nonnull align 8 dereferenceable(64) %1)
          to label %_ZN6icu_7714Transliterator19_getAvailableSourceEiRNS_13UnicodeStringE.exit unwind label %11

11:                                               ; preds = %8, %5
  %12 = landingpad { ptr, i32 }
          cleanup
  call void @llvm.lifetime.end.p0(i64 4, ptr nonnull %3) #21
  invoke void @umtx_unlock_77(ptr noundef nonnull @_ZL13registryMutex)
          to label %_ZN6icu_775MutexD2Ev.exit unwind label %13

13:                                               ; preds = %11
  %14 = landingpad { ptr, i32 }
          catch ptr null
  %15 = extractvalue { ptr, i32 } %14, 0
  call void @__clang_call_terminate(ptr %15) #23
  unreachable

_ZN6icu_775MutexD2Ev.exit:                        ; preds = %11
  resume { ptr, i32 } %12

_ZN6icu_7714Transliterator19_getAvailableSourceEiRNS_13UnicodeStringE.exit: ; preds = %8, %7
  call void @llvm.lifetime.end.p0(i64 4, ptr nonnull %3) #21
  invoke void @umtx_unlock_77(ptr noundef nonnull @_ZL13registryMutex)
          to label %_ZN6icu_775MutexD2Ev.exit5 unwind label %16

16:                                               ; preds = %_ZN6icu_7714Transliterator19_getAvailableSourceEiRNS_13UnicodeStringE.exit
  %17 = landingpad { ptr, i32 }
          catch ptr null
  %18 = extractvalue { ptr, i32 } %17, 0
  call void @__clang_call_terminate(ptr %18) #23
  unreachable

_ZN6icu_775MutexD2Ev.exit5:                       ; preds = %_ZN6icu_7714Transliterator19_getAvailableSourceEiRNS_13UnicodeStringE.exit
  ret ptr %1
}